; Function Attrs: mustprogress uwtable
define hidden i64 @_ZNK2cv10ExifReader12getURationalEm(ptr noundef nonnull readonly align 8 captures(none) dereferenceable(76) %0, i64 noundef %1) local_unnamed_addr #5 align 2 {
  %3 = add i64 %1, 3
  %4 = getelementptr inbounds nuw i8, ptr %0, i64 8
  %5 = load ptr, ptr %4, align 8, !tbaa !54
  %6 = load ptr, ptr %0, align 8, !tbaa !46
  %7 = ptrtoint ptr %5 to i64
  %8 = ptrtoint ptr %6 to i64
  %9 = sub i64 %7, %8
  %.not.i = icmp ult i64 %3, %9
  br i1 %.not.i, label %12, label %10

10:                                               ; preds = %2
  %11 = tail call ptr @__cxa_allocate_exception(i64 1) #25
  tail call void @__cxa_throw(ptr %11, ptr nonnull @_ZTIN12_GLOBAL__N_116ExifParsingErrorE, ptr null) #26
  unreachable

12:                                               ; preds = %2
  %13 = getelementptr inbounds nuw i8, ptr %0, i64 72
  %14 = load i32, ptr %13, align 8, !tbaa !34
  %15 = icmp eq i32 %14, 73
  %16 = getelementptr i8, ptr %6, i64 %1
  %17 = load i8, ptr %16, align 1, !tbaa !12
  %18 = zext i8 %17 to i32
  %19 = add i64 %1, 7
  %.not.i2 = icmp ult i64 %19, %9
  br i1 %15, label %_ZNK2cv10ExifReader6getU32Em.exit, label %_ZNK2cv10ExifReader6getU32Em.exit.thread

_ZNK2cv10ExifReader6getU32Em.exit:                ; preds = %12
  br i1 %.not.i2, label %22, label %20

_ZNK2cv10ExifReader6getU32Em.exit.thread:         ; preds = %12
  br i1 %.not.i2, label %46, label %20

20:                                               ; preds = %_ZNK2cv10ExifReader6getU32Em.exit.thread, %_ZNK2cv10ExifReader6getU32Em.exit
  %21 = tail call ptr @__cxa_allocate_exception(i64 1) #25
  tail call void @__cxa_throw(ptr %21, ptr nonnull @_ZTIN12_GLOBAL__N_116ExifParsingErrorE, ptr null) #26
  unreachable

22:                                               ; preds = %_ZNK2cv10ExifReader6getU32Em.exit
  %23 = getelementptr i8, ptr %16, i64 1
  %24 = load i16, ptr %23, align 1
  %25 = zext i16 %24 to i32
  %26 = shl nuw nsw i32 %25, 8
  %27 = getelementptr inbounds nuw i8, ptr %6, i64 %3
  %28 = load i8, ptr %27, align 1, !tbaa !12
  %29 = zext i8 %28 to i32
  %30 = shl nuw i32 %29, 24
  %31 = or disjoint i32 %26, %30
  %32 = or disjoint i32 %31, %18
  %33 = getelementptr i8, ptr %16, i64 4
  %34 = load i8, ptr %33, align 1, !tbaa !12
  %35 = zext i8 %34 to i64
  %36 = getelementptr i8, ptr %16, i64 5
  %37 = load i16, ptr %36, align 1
  %38 = zext i16 %37 to i64
  %39 = shl nuw nsw i64 %38, 8
  %40 = getelementptr inbounds nuw i8, ptr %6, i64 %19
  %41 = load i8, ptr %40, align 1, !tbaa !12
  %42 = zext i8 %41 to i64
  %43 = shl nuw nsw i64 %42, 24
  %44 = or disjoint i64 %39, %35
  %45 = or disjoint i64 %44, %43
  br label %_ZNK2cv10ExifReader6getU32Em.exit4

46:                                               ; preds = %_ZNK2cv10ExifReader6getU32Em.exit.thread
  %47 = getelementptr i8, ptr %16, i64 1
  %48 = load i8, ptr %47, align 1, !tbaa !12
  %49 = zext i8 %48 to i32
  %50 = shl nuw nsw i32 %49, 16
  %51 = shl nuw i32 %18, 24
  %52 = or disjoint i32 %50, %51
  %53 = getelementptr i8, ptr %16, i64 2
  %54 = load i8, ptr %53, align 1, !tbaa !12
  %55 = zext i8 %54 to i32
  %56 = shl nuw nsw i32 %55, 8
  %57 = or disjoint i32 %52, %56
  %58 = getelementptr inbounds nuw i8, ptr %6, i64 %3
  %59 = load i8, ptr %58, align 1, !tbaa !12
  %60 = zext i8 %59 to i32
  %61 = or disjoint i32 %57, %60
  %62 = getelementptr i8, ptr %16, i64 4
  %63 = load i8, ptr %62, align 1, !tbaa !12
  %64 = zext i8 %63 to i64
  %65 = shl nuw nsw i64 %64, 24
  %66 = getelementptr i8, ptr %16, i64 5
  %67 = load i8, ptr %66, align 1, !tbaa !12
  %68 = zext i8 %67 to i64
  %69 = shl nuw nsw i64 %68, 16
  %70 = or disjoint i64 %69, %65
  %71 = getelementptr i8, ptr %16, i64 6
  %72 = load i8, ptr %71, align 1, !tbaa !12
  %73 = zext i8 %72 to i64
  %74 = shl nuw nsw i64 %73, 8
  %75 = or disjoint i64 %70, %74
  %76 = getelementptr inbounds nuw i8, ptr %6, i64 %19
  %77 = load i8, ptr %76, align 1, !tbaa !12
  %78 = zext i8 %77 to i64
  %79 = or disjoint i64 %75, %78
  br label %_ZNK2cv10ExifReader6getU32Em.exit4

_ZNK2cv10ExifReader6getU32Em.exit4:               ; preds = %22, %46
  %.0.i810 = phi i32 [ %32, %22 ], [ %61, %46 ]
  %.0.i3 = phi i64 [ %45, %22 ], [ %79, %46 ]
  %.sroa.2.0.insert.ext.i = shl nuw i64 %.0.i3, 32
  %.sroa.0.0.insert.ext.i = zext i32 %.0.i810 to i64
  %.sroa.0.0.insert.insert.i = or disjoint i64 %.sroa.2.0.insert.ext.i, %.sroa.0.0.insert.ext.i
  ret i64 %.sroa.0.0.insert.insert.i
}